; Function Attrs: nounwind uwtable
define internal fastcc i32 @emit_string(ptr noundef %0, ptr noundef %1, i64 noundef %2) unnamed_addr #0 {
  %4 = alloca [16 x i8], align 16
  call void @llvm.lifetime.start.p0(i64 16, ptr nonnull %4) #13
  %5 = tail call i64 @nghttp2_hd_huff_encode_count(ptr noundef %1, i64 noundef %2) #13
  %.not = icmp ult i64 %5, %2
  %. = tail call i64 @llvm.umin.i64(i64 %5, i64 %2)
  %6 = icmp ult i64 %., 127
  br i1 %6, label %count_encoded_length.exit.thread.thread, label %10

count_encoded_length.exit.thread.thread:          ; preds = %3
  %7 = select i1 %.not, i8 -128, i8 0
  %8 = trunc nuw i64 %. to i8
  %9 = or disjoint i8 %7, %8
  store i8 %9, ptr %4, align 16, !tbaa !12
  br label %encode_length.exit

10:                                               ; preds = %3
  %11 = add i64 %., -127
  %12 = icmp ugt i64 %11, 127
  br i1 %12, label %.lr.ph.i, label %.thread

.thread:                                          ; preds = %10
  %13 = select i1 %.not, i8 -1, i8 127
  store i8 %13, ptr %4, align 16, !tbaa !12
  %.02428.i41 = getelementptr inbounds nuw i8, ptr %4, i64 1
  br label %._crit_edge.i

.lr.ph.i:                                         ; preds = %10, %.lr.ph.i
  %.016.i = phi i64 [ %15, %.lr.ph.i ], [ 1, %10 ]
  %.01215.i = phi i64 [ %14, %.lr.ph.i ], [ %11, %10 ]
  %14 = lshr i64 %.01215.i, 7
  %15 = add nuw nsw i64 %.016.i, 1
  %16 = icmp ugt i64 %.01215.i, 16383
  br i1 %16, label %.lr.ph.i, label %count_encoded_length.exit, !llvm.loop !79

count_encoded_length.exit:                        ; preds = %.lr.ph.i
  %17 = icmp samesign ugt i64 %.016.i, 14
  br i1 %17, label %32, label %18

18:                                               ; preds = %count_encoded_length.exit
  %19 = add nuw nsw i64 %.016.i, 2
  %20 = select i1 %.not, i8 -1, i8 127
  store i8 %20, ptr %4, align 16, !tbaa !12
  %.02428.i = getelementptr inbounds nuw i8, ptr %4, i64 1
  br label %.lr.ph.i31

.lr.ph.i31:                                       ; preds = %18, %.lr.ph.i31
  %.02430.i = phi ptr [ %.024.i, %.lr.ph.i31 ], [ %.02428.i, %18 ]
  %.02529.i = phi i64 [ %23, %.lr.ph.i31 ], [ %11, %18 ]
  %21 = trunc i64 %.02529.i to i8
  %22 = or i8 %21, -128
  store i8 %22, ptr %.02430.i, align 1, !tbaa !12
  %23 = lshr i64 %.02529.i, 7
  %.024.i = getelementptr inbounds nuw i8, ptr %.02430.i, i64 1
  %24 = icmp ugt i64 %.02529.i, 16383
  br i1 %24, label %.lr.ph.i31, label %._crit_edge.i, !llvm.loop !80

._crit_edge.i:                                    ; preds = %.lr.ph.i31, %.thread
  %.011.i333942 = phi i64 [ 2, %.thread ], [ %19, %.lr.ph.i31 ]
  %.025.lcssa.i = phi i64 [ %11, %.thread ], [ %23, %.lr.ph.i31 ]
  %.024.lcssa.i = phi ptr [ %.02428.i41, %.thread ], [ %.024.i, %.lr.ph.i31 ]
  %25 = trunc nuw nsw i64 %.025.lcssa.i to i8
  store i8 %25, ptr %.024.lcssa.i, align 1, !tbaa !12
  br label %encode_length.exit

encode_length.exit:                               ; preds = %count_encoded_length.exit.thread.thread, %._crit_edge.i
  %.011.i3335 = phi i64 [ 1, %count_encoded_length.exit.thread.thread ], [ %.011.i333942, %._crit_edge.i ]
  %26 = call i32 @nghttp2_bufs_add(ptr noundef %0, ptr noundef nonnull %4, i64 noundef %.011.i3335) #13
  %.not30 = icmp eq i32 %26, 0
  br i1 %.not30, label %27, label %32

27:                                               ; preds = %encode_length.exit
  br i1 %.not, label %28, label %30

28:                                               ; preds = %27
  %29 = call i32 @nghttp2_hd_huff_encode(ptr noundef %0, ptr noundef %1, i64 noundef %2) #13
  br label %32

30:                                               ; preds = %27
  %31 = call i32 @nghttp2_bufs_add(ptr noundef %0, ptr noundef %1, i64 noundef %2) #13
  br label %32

32:                                               ; preds = %28, %30, %encode_length.exit, %count_encoded_length.exit
  %.024 = phi i32 [ -523, %count_encoded_length.exit ], [ %26, %encode_length.exit ], [ %29, %28 ], [ %31, %30 ]
  call void @llvm.lifetime.end.p0(i64 16, ptr nonnull %4) #13
  ret i32 %.024
}